   1              		.file	"gpio.c"
   2              		.option nopic
   3              		.section	.text.set_gpio_pin_direction,"ax",@progbits
   4              		.align	1
   5              		.globl	set_gpio_pin_direction
   7              	set_gpio_pin_direction:
   8 0000 B717101A 		li	a5,437260288
   9 0004 9C43     		lw	a5,0(a5)
  10 0006 4111     		add	sp,sp,-16
  11 0008 3EC6     		sw	a5,12(sp)
  12 000a 8547     		li	a5,1
  13 000c 3395A700 		sll	a0,a5,a0
  14 0010 91C9     		beqz	a1,.L6
  15 0012 B247     		lw	a5,12(sp)
  16 0014 5D8D     		or	a0,a5,a0
  17 0016 2AC6     		sw	a0,12(sp)
  18 0018 3247     		lw	a4,12(sp)
  19 001a B717101A 		li	a5,437260288
  20 001e 98C3     		sw	a4,0(a5)
  21 0020 4101     		add	sp,sp,16
  22 0022 8280     		jr	ra
  23              	.L6:
  24 0024 3247     		lw	a4,12(sp)
  25 0026 9347F5FF 		not	a5,a0
  26 002a F98F     		and	a5,a5,a4
  27 002c 3EC6     		sw	a5,12(sp)
  28 002e 3247     		lw	a4,12(sp)
  29 0030 B717101A 		li	a5,437260288
  30 0034 98C3     		sw	a4,0(a5)
  31 0036 4101     		add	sp,sp,16
  32 0038 8280     		jr	ra
  34              		.section	.text.get_gpio_pin_direction,"ax",@progbits
  35              		.align	1
  36              		.globl	get_gpio_pin_direction
  38              	get_gpio_pin_direction:
  39 0000 B717101A 		li	a5,437260288
  40 0004 9843     		lw	a4,0(a5)
  41 0006 4111     		add	sp,sp,-16
  42 0008 3AC6     		sw	a4,12(sp)
  43 000a 93171500 		sll	a5,a0,1
  44 000e 3245     		lw	a0,12(sp)
  45 0010 3355F540 		sra	a0,a0,a5
  46 0014 333515FC 		p.bclr 	a0,a0,30,1 # Bit clear
  47 0018 2AC6     		sw	a0,12(sp)
  48 001a 3245     		lw	a0,12(sp)
  49 001c 4101     		add	sp,sp,16
  50 001e 8280     		jr	ra
  52              		.section	.text.set_gpio_pin_value,"ax",@progbits
  53              		.align	1
  54              		.globl	set_gpio_pin_value
  56              	set_gpio_pin_value:
  57 0000 B717101A 		li	a5,437260288
  58 0004 9C47     		lw	a5,8(a5)
  59 0006 4111     		add	sp,sp,-16
  60 0008 3EC6     		sw	a5,12(sp)
  61 000a 8547     		li	a5,1
  62 000c 3395A700 		sll	a0,a5,a0
  63 0010 91C9     		beqz	a1,.L13
  64 0012 B247     		lw	a5,12(sp)
  65 0014 5D8D     		or	a0,a5,a0
  66 0016 2AC6     		sw	a0,12(sp)
  67 0018 3247     		lw	a4,12(sp)
  68 001a B717101A 		li	a5,437260288
  69 001e 98C7     		sw	a4,8(a5)
  70 0020 4101     		add	sp,sp,16
  71 0022 8280     		jr	ra
  72              	.L13:
  73 0024 3247     		lw	a4,12(sp)
  74 0026 9347F5FF 		not	a5,a0
  75 002a F98F     		and	a5,a5,a4
  76 002c 3EC6     		sw	a5,12(sp)
  77 002e 3247     		lw	a4,12(sp)
  78 0030 B717101A 		li	a5,437260288
  79 0034 98C7     		sw	a4,8(a5)
  80 0036 4101     		add	sp,sp,16
  81 0038 8280     		jr	ra
  83              		.section	.text.get_gpio_pin_value,"ax",@progbits
  84              		.align	1
  85              		.globl	get_gpio_pin_value
  87              	get_gpio_pin_value:
  88 0000 B717101A 		li	a5,437260288
  89 0004 DC43     		lw	a5,4(a5)
  90 0006 4111     		add	sp,sp,-16
  91 0008 3EC6     		sw	a5,12(sp)
  92 000a B247     		lw	a5,12(sp)
  93 000c 33D5A740 		sra	a0,a5,a0
  94 0010 333515FC 		p.bclr 	a0,a0,30,1 # Bit clear
  95 0014 2AC6     		sw	a0,12(sp)
  96 0016 3245     		lw	a0,12(sp)
  97 0018 4101     		add	sp,sp,16
  98 001a 8280     		jr	ra
 100              		.section	.text.set_gpio_pin_irq_en,"ax",@progbits
 101              		.align	1
 102              		.globl	set_gpio_pin_irq_en
 104              	set_gpio_pin_irq_en:
 105 0000 B717101A 		li	a5,437260288
 106 0004 D847     		lw	a4,12(a5)
 107 0006 8547     		li	a5,1
 108 0008 3395A700 		sll	a0,a5,a0
 109 000c B367A700 		or	a5,a4,a0
 110 0010 89E5     		bnez	a1,.L18
 111 0012 1345F5FF 		not	a0,a0
 112 0016 B377E500 		and	a5,a0,a4
 113              	.L18:
 114 001a 3717101A 		li	a4,437260288
 115 001e 5CC7     		sw	a5,12(a4)
 116 0020 8280     		ret
 118              		.section	.text.set_gpio_pin_irq_type,"ax",@progbits
 119              		.align	1
 120              		.globl	set_gpio_pin_irq_type
 122              	set_gpio_pin_irq_type:
 123 0000 B717101A 		li	a5,437260288
 124 0004 13870701 		add	a4,a5,16
 125 0008 1443     		lw	a3,0(a4)
 126 000a 13874701 		add	a4,a5,20
 127 000e 8547     		li	a5,1
 128 0010 3395A700 		sll	a0,a5,a0
 129 0014 33B615FC 		p.bclr 	a2,a1,30,1 # Bit clear
 130 0018 1C43     		lw	a5,0(a4)
 131 001a 33E7A600 		or	a4,a3,a0
 132 001e 01E6     		bnez	a2,.L21
 133 0020 1347F5FF 		not	a4,a0
 134 0024 758F     		and	a4,a4,a3
 135              	.L21:
 136 0026 8989     		and	a1,a1,2
 137 0028 B3E6A700 		or	a3,a5,a0
 138 002c 89E5     		bnez	a1,.L23
 139 002e 1345F5FF 		not	a0,a0
 140 0032 B376F500 		and	a3,a0,a5
 141              	.L23:
 142 0036 B717101A 		li	a5,437260288
 143 003a 13860701 		add	a2,a5,16
 144 003e 18C2     		sw	a4,0(a2)
 145 0040 D107     		add	a5,a5,20
 146 0042 94C3     		sw	a3,0(a5)
 147 0044 8280     		ret
 149              		.section	.text.get_gpio_irq_status,"ax",@progbits
 150              		.align	1
 151              		.globl	get_gpio_irq_status
 153              	get_gpio_irq_status:
 154 0000 B717101A 		li	a5,437260288
 155 0004 884F     		lw	a0,24(a5)
 156 0006 8280     		ret
 158              		.ident	"GCC: (GNU) 7.1.1 20170509"
DEFINED SYMBOLS
                            *ABS*:0000000000000000 gpio.c
     /tmp/cck2OE7D.s:7      .text.set_gpio_pin_direction:0000000000000000 set_gpio_pin_direction
     /tmp/cck2OE7D.s:38     .text.get_gpio_pin_direction:0000000000000000 get_gpio_pin_direction
     /tmp/cck2OE7D.s:56     .text.set_gpio_pin_value:0000000000000000 set_gpio_pin_value
     /tmp/cck2OE7D.s:87     .text.get_gpio_pin_value:0000000000000000 get_gpio_pin_value
     /tmp/cck2OE7D.s:104    .text.set_gpio_pin_irq_en:0000000000000000 set_gpio_pin_irq_en
     /tmp/cck2OE7D.s:122    .text.set_gpio_pin_irq_type:0000000000000000 set_gpio_pin_irq_type
     /tmp/cck2OE7D.s:153    .text.get_gpio_irq_status:0000000000000000 get_gpio_irq_status
     /tmp/cck2OE7D.s:23     .text.set_gpio_pin_direction:0000000000000024 .L6
     /tmp/cck2OE7D.s:72     .text.set_gpio_pin_value:0000000000000024 .L13
     /tmp/cck2OE7D.s:113    .text.set_gpio_pin_irq_en:000000000000001a .L18
     /tmp/cck2OE7D.s:135    .text.set_gpio_pin_irq_type:0000000000000026 .L21
     /tmp/cck2OE7D.s:141    .text.set_gpio_pin_irq_type:0000000000000036 .L23

NO UNDEFINED SYMBOLS
